; Function Attrs: nounwind uwtable
define hidden void @zim_DOMNodeList_item(ptr noundef %0, ptr noundef %1) local_unnamed_addr #0 {
  %3 = alloca i64, align 8
  %4 = getelementptr inbounds i8, ptr %0, i64 32
  %5 = getelementptr inbounds i8, ptr %0, i64 44
  %6 = load i32, ptr %5, align 4
  %cond = icmp eq i32 %6, 1
  br i1 %cond, label %7, label %.thread81

7:                                                ; preds = %2
  %8 = getelementptr inbounds i8, ptr %0, i64 80
  %9 = getelementptr inbounds i8, ptr %0, i64 88
  %10 = load i8, ptr %9, align 8
  %11 = icmp eq i8 %10, 4
  br i1 %11, label %.thread71, label %13

.thread71:                                        ; preds = %7
  %12 = load i64, ptr %8, align 8
  store i64 %12, ptr %3, align 8
  br label %.thread89

13:                                               ; preds = %7
  %14 = call zeroext i1 @zend_parse_arg_long_slow(ptr noundef nonnull %8, ptr noundef nonnull %3, i32 noundef 1) #3
  %.fr = freeze i1 %14
  br i1 %.fr, label %..thread89_crit_edge, label %15

..thread89_crit_edge:                             ; preds = %13
  %.pre = load i64, ptr %3, align 8
  br label %.thread89

.thread81:                                        ; preds = %2
  tail call void @zend_wrong_parameters_count_error(i32 noundef 1, i32 noundef 1) #3
  br label %15

15:                                               ; preds = %13, %.thread81
  %.05988 = phi i32 [ 0, %.thread81 ], [ 1, %13 ]
  %.06087 = phi i32 [ 1, %.thread81 ], [ 9, %13 ]
  %.06186 = phi ptr [ null, %.thread81 ], [ %8, %13 ]
  call void @zend_wrong_parameter_error(i32 noundef %.06087, i32 noundef %.05988, ptr noundef null, i32 noundef 0, ptr noundef %.06186) #3
  br label %20

.thread89:                                        ; preds = %..thread89_crit_edge, %.thread71
  %16 = phi i64 [ %.pre, %..thread89_crit_edge ], [ %12, %.thread71 ]
  %17 = load ptr, ptr %4, align 8
  %18 = getelementptr inbounds i8, ptr %17, i64 -24
  %19 = load ptr, ptr %18, align 8
  call void @php_dom_nodelist_get_item_into_zval(ptr noundef %19, i64 noundef %16, ptr noundef %1)
  br label %20

20:                                               ; preds = %.thread89, %15
  ret void
}